(dp0
Vusername
p1
Vadmin
p2
sS'url'
p3
V14.143.33.152
p4
sS'vulnerabilities'
p5
(lp6
Vserver-info
p7
asVCPU_count
p8
I1
sVnotebook_name
p9
Vserver_info
p10
sS'report'
p11
S'The server header for the remote web server is: "WildFly/11". This information was found in the request with id 23.\r\nThe x-powered-by header for the target HTTP server is "Undertow/1, JSP/2.3". This information was found in the request with id 23.\r\nFound 1 URLs and 1 different injections points.\r\nThe URL list is:\r\n- http://14.143.33.152/Academy/\r\nThe list of fuzzable requests is:\r\n- Method: GET | http://14.143.33.152/Academy/\r'
p12
sVGPU_count
p13
I0
s.