(dp0
Vusername
p1
Vadmin
p2
sS'url'
p3
V14.143.33.152
p4
sS'vulnerabilities'
p5
(lp6
Vform-security
p7
asVCPU_count
p8
I1
sVnotebook_name
p9
Vform_check
p10
sS'report'
p11
S'\x1b[33mThe URL: "http://14.143.33.152/Academy/" contains a <form> tag which submits credentials over HTTP.  This vulnerability was found in the request with id 20.\r'
p12
sVGPU_count
p13
I0
s.