(dp0
Vusername
p1
Vadmin
p2
sS'url'
p3
V14.143.33.152
p4
sS'vulnerabilities'
p5
(lp6
Vgenscan
p7
asVCPU_count
p8
I1
sVnotebook_name
p9
Vrapid scan
p10
sS'report'
p11
S"[ Checking Available Security Scanning Tools Phase... Completed. ]\n\n\n\x1b[100m[ Preliminary Scan Phase Initiated... Loaded 64 vulnerability checks.  ]\n[\xe2\x97\x8f < 30s] Deploying 1/64 | WordPress Checker - Checks for WordPress Installation. |\x08\x08...Completed in 1s\n\n\x1b[F\x1b[K[\xe2\x97\x8f < 35s] Deploying 2/64 | Nmap - Checks for MS-SQL Server DB /\x08\x08...Completed in 1s\n\n\x1b[F\x1b[KVulnerability Threat Level\n\t medium  HTTP PUT DEL Methods Enabled.\nVulnerability Definition\n\tThere are chances for an attacker to manipulate files on the webserver.\nVulnerability Remediation\n\tIt is recommended to disable the HTTP PUT and DEL methods incase if you don't use any REST API Services. Following resources helps you how to disable these methods. http://www.techstacks.com/howto/disable-http-methods-in-tomcat.html https://docs.oracle.com/cd/E19857-01/820-5627/gghwc/index.html https://developer.ibm.com/answers/questions/321629/how-to-disable-http-methods-head-put-delete-option/\n[\xe2\x97\x8f < 30s] Deploying 3/64 | Golismero - SQLMap [Retrieves only the DB Banner] ...Scanning Tool Unavailable. Auto-Skipping Test...\n[\xe2\x97\x8f <  4m] Deploying 4/64 | Golismero Subdomains Bruter - Brute Forces Subdomain Discovery. ...Scanning Tool Unavailable. Auto-Skipping Test...\n[\xe2\x97\x8f < 20s] Deploying 5/64 | Nikto - Checks for Internal IP Leak. ...Scanning Tool Unavailable. Auto-Skipping Test...\n[\xe2\x97\x8f <  5m] Deploying 6/64 | Nikto - Checks for Server Issues. ...Scanning Tool Unavailable. Auto-Skipping Test...\n[\xe2\x97\x8f < 35s] Deploying 7/64 | WhatWeb - Checks for X-XSS Protection Header ...Scanning Tool Unavailable. Auto-Skipping Test...\n[\xe2\x97\x8f < 35s] Deploying 8/64 | Nikto - Performs SSL Checks. ...Scanning Tool Unavailable. Auto-Skipping Test...\n[\xe2\x97\x8f < 15s] Deploying 9/64 | Nikto - Checks for Shellshock Bug. ...Scanning Tool Unavailable. Auto-Skipping Test...\n[\xe2\x97\x8f <  9m] Deploying 10/64 | Nikto - Enumerates CGI Directories. ...Scanning Tool Unavailable. Auto-Skipping Test...\n[\xe2\x97\x8f < 35s] Deploying 11/64 | DirB - Brutes the target for Open Directories. ...Scanning Tool Unavailable. Auto-Skipping Test...\n[\xe2\x97\x8f < 30s] Deploying 12/64 | Golismero Nikto Scans - Uses Nikto Plugin to detect vulnerabilities. ...Scanning Tool Unavailable. Auto-Skipping Test...\n[\xe2\x97\x8f <  4m] Deploying 13/64 | Nmap [STUXNET] - Checks if the host is affected by STUXNET Worm. \\\x08|\x08/\x08\\\x08|\x08\x08...Completed in 1s\n\n\x1b[F\x1b[KVulnerability Threat Level\n\t critical  XSSer found XSS vulnerabilities.\nVulnerability Definition\n\tAn attacker will be able to steal cookies, deface web application or redirect to any third party address that can serve malware.\nVulnerability Remediation\n\tInput validation and Output Sanitization can completely prevent Cross Site Scripting (XSS) attacks. XSS attacks can be mitigated in future by properly following a secure coding methodology. The following comprehensive resource provides detailed information on fixing this vulnerability. https://www.owasp.org/index.php/XSS_(Cross_Site_Scripting)_Prevention_Cheat_Sheet\n[\xe2\x97\x8f <  2m] Deploying 14/64 | Nmap - Fast Scan [Only Few Port Checks] /\x08\\\x08|\x08/\x08\\\x08|\x08/\x08\\\x08|\x08/\x08\\\x08|\x08/\x08\\\x08|\x08/\x08\\\x08|\x08/\x08\\\x08|\x08/\x08\\\x08|\x08/\x08\\\x08|\x08/\x08\\\x08|\x08/\x08\\\x08|\x08/\x08\\\x08|\x08/\x08\x08...Completed in 2s\n\n\x1b[F\x1b[KVulnerability Threat Level\n\t low  Some ports are open. Perform a full-scan manually.\nVulnerability Definition\n\tOpen Ports give attackers a hint to exploit the services. Attackers try to retrieve banner information through the ports and understand what type of service the host is running\nVulnerability Remediation\n\tIt is recommended to close the ports of unused services and use a firewall to filter the ports wherever necessary. This resource may give more insights. https://security.stackexchange.com/a/145781/6137\n[\xe2\x97\x8f < 40s] Deploying 15/64 | Golismero - Checks if the domain is spoofed or hijacked. ...Scanning Tool Unavailable. Auto-Skipping Test...\n[\xe2\x97\x8f < 15s] Deploying 16/64 | Nikto - Checks the Domain Headers. ...Scanning Tool Unavailable. Auto-Skipping Test...\n[\xe2\x97\x8f < 40s] Deploying 17/64 | Fierce Subdomains Bruter - Brute Forces Subdomain Discovery. ...Scanning Tool Unavailable. Auto-Skipping Test...\n[\xe2\x97\x8f < 35s] Deploying 18/64 | Nikto - Checks for Injectable Paths. ...Scanning Tool Unavailable. Auto-Skipping Test...\n[\xe2\x97\x8f < 35s] Deploying 19/64 | Nmap - Checks for MySQL DB \\\x08\x08...Completed in 1s\n\n\x1b[F\x1b[KVulnerability Threat Level\n\t medium  Some vulnerable headers exposed.\nVulnerability Definition\n\tAttackers try to learn more about the target from the amount of information exposed in the headers. An attacker may know what type of tech stack a web application is emphasizing and many other information.\nVulnerability Remediation\n\tBanner Grabbing should be restricted and access to the services from outside would should be made minimum.\n[\xe2\x97\x8f < 20s] Deploying 20/64 | DNSRecon - Attempts Multiple Zone Transfers on Nameservers. ...Scanning Tool Unavailable. Auto-Skipping Test...\n[\xe2\x97\x8f < 30s] Deploying 21/64 | ASP.Net Misconfiguration - Checks for ASP.Net Misconfiguration. |\x08\x08...Completed in 1s\n\n\x1b[F\x1b[K[\xe2\x97\x8f < 35s] Deploying 22/64 | Nikto - Checks for Apache Expect XSS Header. ...Scanning Tool Unavailable. Auto-Skipping Test...\n[\xe2\x97\x8f < 15s] Deploying 23/64 | Nikto - Brutes Subdomains. ...Scanning Tool Unavailable. Auto-Skipping Test...\n[\xe2\x97\x8f < 25s] Deploying 24/64 | WHOis - Checks for Administrator's Contact Information. /\x08\\\x08|\x08/\x08\\\x08|\x08/\x08\\\x08|\x08/\x08\\\x08|\x08/\x08\\\x08|\x08/\x08\\\x08|\x08/\x08\\\x08|\x08/\x08\\\x08|\x08/\x08\\\x08|\x08/\x08\\\x08|\x08/\x08\\\x08|\x08/\x08\\\x08|\x08/\x08\\\x08|\x08/\x08\\\x08|\x08/\x08\\\x08|\x08/\x08\\\x08|\x08/\x08\\\x08|\x08/\x08\\\x08|\x08/\x08\\\x08|\x08/\x08\\\x08|\x08/\x08\\\x08|\x08/\x08\\\x08|\x08/\x08\\\x08|\x08/\x08\\\x08|\x08/\x08\\\x08|\x08/\x08\\\x08|\x08/\x08\\\x08|\x08/\x08\\\x08|\x08/\x08\\\x08|\x08/\x08\\\x08|\x08/\x08\\\x08|\x08/\x08\\\x08|\x08/\x08\\\x08|\x08/\x08\\\x08|\x08/\x08\\\x08|\x08/\x08\\\x08|\x08/\x08\\\x08|\x08/\x08\\\x08|\x08/\x08\\\x08|\x08/\x08\\\x08|\x08/\x08\\\x08|\x08/\x08\\\x08|\x08/\x08\\\x08|\x08/\x08\\\x08|\x08/\x08\\\x08|\x08/\x08\\\x08|\x08/\x08\\\x08|\x08/\x08\\\x08|\x08/\x08\\\x08|\x08/\x08\\\x08|\x08/\x08\\\x08|\x08/\x08\\\x08|\x08/\x08\\\x08|\x08/\x08\\\x08|\x08/\x08\\\x08|\x08/\x08\\\x08|\x08/\x08\\\x08|\x08/\x08\\\x08|\x08/\x08\\\x08|\x08/\x08\\\x08|\x08/\x08\\\x08|\x08/\x08\\\x08|\x08/\x08\\\x08|\x08/\x08\\\x08|\x08/\x08\\\x08|\x08/\x08\\\x08|\x08/\x08\\\x08|\x08\x08...Completed in 11s\n\n\x1b[F\x1b[K[\xe2\x97\x8f < 30s] Deploying 25/64 | Golismero - Does a fingerprint on the Domain. ...Scanning Tool Unavailable. Auto-Skipping Test...\n[\xe2\x97\x8f < 30s] Deploying 26/64 | Joomla Checker - Checks for Joomla Installation. /\x08\x08...Completed in 1s\n\n\x1b[F\x1b[K[\xe2\x97\x8f < 35s] Deploying 27/64 | Nikto - Checks for any interesting files on the Domain. ...Scanning Tool Unavailable. Auto-Skipping Test...\n[\xe2\x97\x8f < 30s] Deploying 28/64 | Drupal Checker - Checks for Drupal Installation. \\\x08\x08...Completed in 1s\n\n\x1b[F\x1b[K[\xe2\x97\x8f <  2m] Deploying 29/64 | Nikto - Checks for MS10-070 Vulnerability. ...Scanning Tool Unavailable. Auto-Skipping Test...\n[\xe2\x97\x8f < 45m] Deploying 30/64 | LBD - Checks for DNS/HTTP Load Balancers. ...Scanning Tool Unavailable. Auto-Skipping Test...\n[\xe2\x97\x8f < 30s] Deploying 31/64 | Nikto - Checks for HTTP PUT DEL. ...Scanning Tool Unavailable. Auto-Skipping Test...\n[\xe2\x97\x8f < 30s] Deploying 32/64 | Uniscan - Checks for XSS, SQLi, BSQLi & Other Checks. ...Scanning Tool Unavailable. Auto-Skipping Test...\n[\xe2\x97\x8f <  9m] Deploying 33/64 | Nikto - Checks if Server is Outdated. ...Scanning Tool Unavailable. Auto-Skipping Test...\n[\xe2\x97\x8f < 35s] Deploying 34/64 | Nmap - Performs a Full TCP Port Scan |\x08\x08...Completed in 1s\n\n\x1b[F\x1b[KVulnerability Threat Level\n\t low  Some issues found with HTTP Options.\nVulnerability Definition\n\tThere are chances for an attacker to manipulate files on the webserver.\nVulnerability Remediation\n\tIt is recommended to disable the HTTP PUT and DEL methods incase if you don't use any REST API Services. Following resources helps you how to disable these methods. http://www.techstacks.com/howto/disable-http-methods-in-tomcat.html https://docs.oracle.com/cd/E19857-01/820-5627/gghwc/index.html https://developer.ibm.com/answers/questions/321629/how-to-disable-http-methods-head-put-delete-option/\n[\xe2\x97\x8f <  4m] Deploying 35/64 | Uniscan - Brutes for Filenames on the Domain. ...Scanning Tool Unavailable. Auto-Skipping Test...\n[\xe2\x97\x8f < 35s] Deploying 36/64 | Wapiti - Checks for SQLi, RCE, XSS and Other Vulnerabilities ...Scanning Tool Unavailable. Auto-Skipping Test...\n[\xe2\x97\x8f < 35s] Deploying 37/64 | DNSWalk - Attempts Zone Transfer. ...Scanning Tool Unavailable. Auto-Skipping Test...\n[\xe2\x97\x8f < 35s] Deploying 38/64 | Nmap - Checks for Remote Desktop Service over UDP /\x08\x08...Completed in 1s\n\n\x1b[F\x1b[KVulnerability Threat Level\n\t medium  Some issues found on the Webserver.\nVulnerability Definition\n\tParticular Scanner found multiple vulnerabilities that an attacker may try to exploit the target.\nVulnerability Remediation\n\tRefer to RS-Vulnerability-Report to view the complete information of the vulnerability, once the scan gets completed.\n[\xe2\x97\x8f < 45s] Deploying 39/64 | DNSEnum - Attempts Zone Transfer. ...Scanning Tool Unavailable. Auto-Skipping Test...\n[\xe2\x97\x8f < 45s] Deploying 40/64 | WebDAV - Checks if WEBDAV enabled on Home directory. ...Scanning Tool Unavailable. Auto-Skipping Test...\n[\xe2\x97\x8f < 25s] Deploying 41/64 | Golismero Zone Transfer - Attempts Zone Transfer. ...Scanning Tool Unavailable. Auto-Skipping Test...\n[\xe2\x97\x8f < 45s] Deploying 42/64 | Wafw00f - Checks for Application Firewalls. ...Scanning Tool Unavailable. Auto-Skipping Test...\n[\xe2\x97\x8f < 25s] Deploying 43/64 | XSSer - Checks for Cross-Site Scripting [XSS] Attacks. \\\x08|\x08/\x08\\\x08|\x08/\x08\\\x08|\x08/\x08\\\x08|\x08/\x08\\\x08\x08...Completed in 1s\n\n\x1b[F\x1b[K[\xe2\x97\x8f < 30s] Deploying 44/64 | Fierce - Attempts Zone Transfer [No Brute Forcing] ...Scanning Tool Unavailable. Auto-Skipping Test...\n[\xe2\x97\x8f < 35s] Deploying 45/64 | Nmap - Checks for Remote Desktop Service over TCP |\x08\x08...Completed in 1s\n\n\x1b[F\x1b[KVulnerability Threat Level\n\t high  Webserver is Outdated.\nVulnerability Definition\n\tAny outdated web server may contain multiple vulnerabilities as their support would've been ended. An attacker may make use of such an opportunity to leverage attacks.\nVulnerability Remediation\n\tIt is highly recommended to upgrade the web server to the available latest version.\n[\xe2\x97\x8f < 35s] Deploying 46/64 | Nmap - Checks for ORACLE DB /\x08\x08...Completed in 1s\n\n\x1b[F\x1b[KVulnerability Threat Level\n\t high  Webserver vulnerable to MS10-070.\nVulnerability Definition\n\tAn attacker who successfully exploited this vulnerability could read data, such as the view state, which was encrypted by the server. This vulnerability can also be used for data tampering, which, if successfully exploited, could be used to decrypt and tamper with the data encrypted by the server.\nVulnerability Remediation\n\tMicrosoft has released a set of patches on their website to mitigate this issue. The information required to fix this vulnerability can be inferred from this resource. https://docs.microsoft.com/en-us/security-updates/securitybulletins/2010/ms10-070\n[\xe2\x97\x8f < 15s] Deploying 47/64 | Host - Checks for existence of IPV6 address. \\\x08\x08...Completed in 1s\n\n\x1b[F\x1b[KVulnerability Threat Level\n\t info  Does not have an IPv6 Address. It is good to have one.\nVulnerability Definition\n\tNot a vulnerability, just an informational alert. The host does not have IPv6 support. IPv6 provides more security as IPSec (responsible for CIA - Confidentiality, Integrity and Availablity) is incorporated into this model. So it is good to have IPv6 Support.\nVulnerability Remediation\n\tIt is recommended to implement IPv6. More information on how to implement IPv6 can be found from this resource. https://www.cisco.com/c/en/us/solutions/collateral/enterprise/cisco-on-cisco/IPv6-Implementation_CS.html\n[\xe2\x97\x8f < 35s] Deploying 48/64 | DNSMap - Brutes Subdomains. ...Scanning Tool Unavailable. Auto-Skipping Test...\n[\xe2\x97\x8f < 45s] Deploying 49/64 | Nmap [TELNET] - Checks if TELNET service is running. |\x08\x08...Completed in 1s\n\n\x1b[F\x1b[KVulnerability Threat Level\n\t low  DB Banner retrieved with SQLMap.\nVulnerability Definition\n\tMay not be SQLi vulnerable. An attacker will be able to know that the host is using a backend for operation.\nVulnerability Remediation\n\tBanner Grabbing should be restricted and access to the services from outside would should be made minimum.\n[\xe2\x97\x8f < 30s] Deploying 50/64 | Golismero SSL Scans - Performs SSL related Scans. ...Scanning Tool Unavailable. Auto-Skipping Test...\n[\xe2\x97\x8f <  3m] Deploying 51/64 | The Harvester - Scans for emails using Google's passive search. ...Scanning Tool Unavailable. Auto-Skipping Test...\n[\xe2\x97\x8f < 45s] Deploying 52/64 | Uniscan - Stress Tests the Domain. ...Scanning Tool Unavailable. Auto-Skipping Test...\n[\xe2\x97\x8f < 40s] Deploying 53/64 | DMitry - Passively Harvests Subdomains from the Domain. ...Scanning Tool Unavailable. Auto-Skipping Test...\n[\xe2\x97\x8f < 20s] Deploying 54/64 | Nmap [XSS Filter Check] - Checks if XSS Protection Header is present. /\x08\\\x08|\x08/\x08\\\x08|\x08/\x08\\\x08|\x08/\x08\\\x08|\x08/\x08\\\x08|\x08/\x08\\\x08|\x08/\x08\x08...Completed in 1s\n\n\x1b[F\x1b[K[\xe2\x97\x8f < 45s] Deploying 55/64 | DMitry - Passively Harvests Emails from the Domain. ...Scanning Tool Unavailable. Auto-Skipping Test...\n[\xe2\x97\x8f < 75m] Deploying 56/64 | Uniscan - Checks for LFI, RFI and RCE. ...Scanning Tool Unavailable. Auto-Skipping Test...\n[\xe2\x97\x8f < 40s] Deploying 57/64 | Uniscan - Checks for robots.txt & sitemap.xml ...Scanning Tool Unavailable. Auto-Skipping Test...\n[\xe2\x97\x8f <  8m] Deploying 58/64 | Nikto - Checks for HTTP Options on the Domain. ...Scanning Tool Unavailable. Auto-Skipping Test...\n[\xe2\x97\x8f < 30s] Deploying 59/64 | Golismero - Checks only for Heartbleed Vulnerability. ...Scanning Tool Unavailable. Auto-Skipping Test...\n[\xe2\x97\x8f < 30m] Deploying 60/64 | Uniscan - Brutes Directories on the Domain. ...Scanning Tool Unavailable. Auto-Skipping Test...\n[\xe2\x97\x8f < 35s] Deploying 61/64 | Golismero - BruteForces for certain directories on the Domain. ...Scanning Tool Unavailable. Auto-Skipping Test...\n[\xe2\x97\x8f < 35m] Deploying 62/64 | Nmap [FTP] - Checks if FTP service is running. \\\x08\x08...Completed in 1s\n\n\x1b[F\x1b[KVulnerability Threat Level\n\t medium  Open Directories Found with DirB.\nVulnerability Definition\n\tAttackers may find considerable amount of information from these directories. There are even chances attackers may get access to critical information from these directories.\nVulnerability Remediation\n\tIt is recommended to block or restrict access to these directories unless necessary.\n[\xe2\x97\x8f < 35s] Deploying 63/64 | Checks for ASP.net Elmah Logger |\x08\x1b[?12l\x1b[?25h\x08...Completed in 1s\n\n\x1b[F\x1b[KVulnerability Threat Level\n\t low  CGI Directories Enumerated.\nVulnerability Definition\n\tAttackers may find considerable amount of information from these directories. There are even chances attackers may get access to critical information from these directories.\nVulnerability Remediation\n\tIt is recommended to block or restrict access to these directories unless necessary.\n[\xe2\x97\x8f < 35s] Deploying 64/64 | Golismero - BruteForces for certain files on the Domain. ...Scanning Tool Unavailable. Auto-Skipping Test...\n[ Preliminary Scan Phase Completed. ]\n\n\n\x1b[100m[ Report Generation Phase Initiated. ]\n\tComplete Vulnerability Report for 14.143.33.152 named `RS-Vulnerability-Report` is available under the same directory RapidScan resides.\n\tTotal Number of Vulnerability Checks        : 64\n\tTotal Number of Vulnerability Checks Skipped: 45\n\tTotal Number of Vulnerabilities Detected    : 12\n\tTotal Time Elapsed for the Scan             : 15s\n\n\n\tFor Debugging Purposes, You can view the complete output generated by all the tools named `RS-Debug-ScanLog` under the same directory.\n[ Report Generation Phase Completed. ]\n"
p12
sVGPU_count
p13
I0
s.