(dp0
Vusername
p1
Vadmin
p2
sS'url'
p3
Vwww.pes.edu
p4
sS'vulnerabilities'
p5
(lp6
Vssl
p7
asVCPU_count
p8
I0
sVnotebook_name
p9
Vscan8
p10
sS'report'
p11
S"\n * Certificate Information:\n     Content\n       SHA1 Fingerprint:                  719a5f67d91db069f0d33df5a36b4aa918c5fdeb\n       Common Name:                       pes.edu\n       Issuer:                            cPanel, Inc. Certification Authority\n       Serial Number:                     294256968979689371847451159224663882113\n       Not Before:                        2019-02-14 00:00:00\n       Not After:                         2019-05-15 23:59:59\n       Signature Algorithm:               sha256\n       Public Key Algorithm:              RSA\n       Key Size:                          2048\n       Exponent:                          65537 (0x10001)\n       DNS Subject Alternative Names:     [u'pes.edu', u'cpanel.pes.edu', u'mail.pes.edu', u'webdisk.pes.edu', u'webmail.pes.edu', u'www.pes.edu']\n\n     Trust\n       Hostname Validation:               OK - Certificate matches www.pes.edu\n       Android CA Store (8.1.0_r9):       OK - Certificate is trusted\n       iOS CA Store (11):                 OK - Certificate is trusted\n       Java CA Store (jre-10.0.2):        OK - Certificate is trusted\n       macOS CA Store (High Sierra):      OK - Certificate is trusted\n       Mozilla CA Store (2018-04-12):     OK - Certificate is trusted\n       Windows CA Store (2018-06-30):     OK - Certificate is trusted\n       Symantec 2018 Deprecation:         OK - Not a Symantec-issued certificate\n       Received Chain:                    pes.edu --> cPanel, Inc. Certification Authority --> COMODO RSA Certification Authority\n       Verified Chain:                    pes.edu --> cPanel, Inc. Certification Authority --> COMODO RSA Certification Authority\n       Received Chain Contains Anchor:    OK - Anchor certificate not sent\n       Received Chain Order:              OK - Order is valid\n       Verified Chain contains SHA1:      OK - No SHA1-signed certificate in the verified certificate chain\n\n     Extensions\n       OCSP Must-Staple:                  NOT SUPPORTED - Extension not found\n       Certificate Transparency:          WARNING - Only 2 SCTs included but Google recommends 3 or more\n\n     OCSP Stapling\n       OCSP Response Status:              successful\n       Validation w/ Mozilla Store:       OK - Response is trusted\n       Responder Id:                      7E035A65416BA77E0AE1B89D08EA1D8E1D6AC765\n       Cert Status:                       good\n       Cert Serial Number:                DD5FD4AEABA8B7B0FA4D71B0A9F73981\n       This Update:                       Mar 31 07:46:12 2019 GMT\n       Next Update:                       Apr  7 07:46:12 2019 GMT\n\n * SSLV2 Cipher Suites:\n      Server rejected all cipher suites.\n\n * TLSV1_3 Cipher Suites:\n      Server rejected all cipher suites.\n\n * Deflate Compression:\n                                          OK - Compression disabled\n\n * TLSV1 Cipher Suites:\n      Server rejected all cipher suites.\n\n * SSLV3 Cipher Suites:\n      Server rejected all cipher suites.\n\n * OpenSSL Heartbleed:\n                                          OK - Not vulnerable to Heartbleed\n\n * Downgrade Attacks:\n       TLS_FALLBACK_SCSV:                 OK - Supported\n\n * OpenSSL CCS Injection:\n                                          OK - Not vulnerable to OpenSSL CCS injection\n\n * TLSV1_1 Cipher Suites:\n      Server rejected all cipher suites.\n\n * Session Renegotiation:\n       Client-initiated Renegotiation:    OK - Rejected\n       Secure Renegotiation:              OK - Supported\n\n * TLSV1_2 Cipher Suites:\n       Forward Secrecy                    OK - Supported\n       RC4                                OK - Not Supported\n\n     Preferred:\n        None - Server followed client cipher suite preference.                                                            \n     Accepted:\n        TLS_ECDHE_RSA_WITH_AES_256_CBC_SHA384             ECDH-256 bits  256 bits      HTTP 200 OK                                                 \n        TLS_ECDHE_RSA_WITH_AES_256_GCM_SHA384             ECDH-256 bits  256 bits      HTTP 200 OK                                                 \n        TLS_ECDHE_RSA_WITH_AES_128_GCM_SHA256             ECDH-256 bits  128 bits      HTTP 200 OK                                                 \n        TLS_ECDHE_RSA_WITH_AES_128_CBC_SHA256             ECDH-256 bits  128 bits      HTTP 200 OK                                                 \n\n * ROBOT Attack:\n                                          OK - Not vulnerable, RSA cipher suites not supported\n\n * Resumption Support:\n      With Session IDs:                  OK - Supported (5 successful, 0 failed, 0 errors, 5 total attempts).\n      With TLS Tickets:                  OK - Supported\n\n"
p12
sVGPU_count
p13
I0
s.