(lp0
(dp1
S'CPU_count'
p2
I1
sS'notebook_name'
p3
Vabc
p4
sa(dp5
S'CPU_count'
p6
I0
sS'notebook_name'
p7
Vxyz
p8
sa(dp9
S'CPU_count'
p10
I0
sS'notebook_name'
p11
Vscan1 
p12
sa(dp13
S'CPU_count'
p14
I0
sS'notebook_name'
p15
Vscan1
p16
sa(dp17
S'CPU_count'
p18
I0
sS'notebook_name'
p19
Vscan2
p20
sa(dp21
S'CPU_count'
p22
I0
sS'notebook_name'
p23
Vscan3
p24
sa(dp25
S'CPU_count'
p26
I0
sS'notebook_name'
p27
Vabcd
p28
sa(dp29
S'CPU_count'
p30
I0
sS'notebook_name'
p31
Vghsd
p32
sa.