(lp0
(dp1
S'username'
p2
S'admin'
p3
sS'password'
p4
S'secret'
p5
sS'notebooks'
p6
(lp7
sa(dp8
S'username'
p9
Va
p10
sS'created_notebooks'
p11
(lp12
sS'password'
p13
g10
sa(dp14
S'username'
p15
V
p16
sS'created_notebooks'
p17
(lp18
sS'password'
p19
g16
sa.