(lp0
(dp1
S'CPU_count'
p2
I1
sS'notebook_name'
p3
Vscan1 
p4
sa(dp5
S'CPU_count'
p6
I1
sS'notebook_name'
p7
Vscan2
p8
sa(dp9
S'CPU_count'
p10
I1
sS'notebook_name'
p11
Vscan3
p12
sa(dp13
S'CPU_count'
p14
I1
sS'notebook_name'
p15
Vscan4
p16
sa(dp17
S'CPU_count'
p18
I1
sS'notebook_name'
p19
Vscan6
p20
sa(dp21
S'CPU_count'
p22
I1
sS'notebook_name'
p23
Vscan5
p24
sa.